; Function Attrs: mustprogress uwtable
define dso_local void @_ZN5ImGui7NewLineEv() local_unnamed_addr #5 {
  %1 = alloca %struct.ImVec2, align 4
  %2 = alloca %struct.ImVec2, align 4
  %3 = load ptr, ptr @GImGui, align 8, !tbaa !4
  %4 = getelementptr inbounds nuw i8, ptr %3, i64 4928
  %5 = load ptr, ptr %4, align 8, !tbaa !9
  %6 = getelementptr inbounds nuw i8, ptr %5, i64 204
  store i8 1, ptr %6, align 4, !tbaa !130
  %7 = getelementptr inbounds nuw i8, ptr %5, i64 207
  %8 = load i8, ptr %7, align 1, !tbaa !151, !range !152, !noundef !153
  %9 = trunc nuw i8 %8 to i1
  br i1 %9, label %24, label %10

10:                                               ; preds = %0
  %11 = getelementptr inbounds nuw i8, ptr %5, i64 460
  %12 = load i32, ptr %11, align 4, !tbaa !278
  store i32 1, ptr %11, align 4, !tbaa !278
  %13 = getelementptr inbounds nuw i8, ptr %5, i64 344
  store i8 0, ptr %13, align 8, !tbaa !279
  %14 = getelementptr inbounds nuw i8, ptr %5, i64 324
  %15 = load float, ptr %14, align 4, !tbaa !270
  %16 = fcmp ogt float %15, 0.000000e+00
  br i1 %16, label %17, label %19

17:                                               ; preds = %10
  call void @llvm.lifetime.start.p0(i64 8, ptr nonnull %1) #43
  store float 0.000000e+00, ptr %1, align 4, !tbaa !158
  %18 = getelementptr inbounds nuw i8, ptr %1, i64 4
  store float 0.000000e+00, ptr %18, align 4, !tbaa !159
  call void @_ZN5ImGui8ItemSizeERK6ImVec2f(ptr noundef nonnull align 4 dereferenceable(8) %1, float noundef -1.000000e+00)
  call void @llvm.lifetime.end.p0(i64 8, ptr nonnull %1) #43
  br label %23

19:                                               ; preds = %10
  call void @llvm.lifetime.start.p0(i64 8, ptr nonnull %2) #43
  %20 = getelementptr inbounds nuw i8, ptr %3, i64 4184
  %21 = load float, ptr %20, align 8, !tbaa !172
  store float 0.000000e+00, ptr %2, align 4, !tbaa !158
  %22 = getelementptr inbounds nuw i8, ptr %2, i64 4
  store float %21, ptr %22, align 4, !tbaa !159
  call void @_ZN5ImGui8ItemSizeERK6ImVec2f(ptr noundef nonnull align 4 dereferenceable(8) %2, float noundef -1.000000e+00)
  call void @llvm.lifetime.end.p0(i64 8, ptr nonnull %2) #43
  br label %23

23:                                               ; preds = %19, %17
  store i32 %12, ptr %11, align 4, !tbaa !278
  br label %24

24:                                               ; preds = %0, %23
  ret void
}